target datalayout = "e-m:e-p270:32:32-p271:32:32-p272:64:64-i64:64-i128:128-f80:128-n8:16:32:64-S128"
target triple = "x86_64-pc-linux-gnu"

; Function Attrs: nounwind uwtable
define dso_local i32 @pg_utf_mblen_private(ptr noundef %0) #1 {
  %2 = alloca ptr, align 8
  %3 = alloca i32, align 4
  store ptr %0, ptr %2, align 8
  call void @llvm.lifetime.start.p0(i64 4, ptr %3) #7
  %4 = load ptr, ptr %2, align 8
  %5 = load i8, ptr %4, align 1
  %6 = zext i8 %5 to i32
  %7 = and i32 %6, 128
  %8 = icmp eq i32 %7, 0
  br i1 %8, label %9, label %10

9:                                                ; preds = %1
  store i32 1, ptr %3, align 4
  br label %35

10:                                               ; preds = %1
  %11 = load ptr, ptr %2, align 8
  %12 = load i8, ptr %11, align 1
  %13 = zext i8 %12 to i32
  %14 = and i32 %13, 224
  %15 = icmp eq i32 %14, 192
  br i1 %15, label %16, label %17

16:                                               ; preds = %10
  store i32 2, ptr %3, align 4
  br label %34

17:                                               ; preds = %10
  %18 = load ptr, ptr %2, align 8
  %19 = load i8, ptr %18, align 1
  %20 = zext i8 %19 to i32
  %21 = and i32 %20, 240
  %22 = icmp eq i32 %21, 224
  br i1 %22, label %23, label %24

23:                                               ; preds = %17
  store i32 3, ptr %3, align 4
  br label %33

24:                                               ; preds = %17
  %25 = load ptr, ptr %2, align 8
  %26 = load i8, ptr %25, align 1
  %27 = zext i8 %26 to i32
  %28 = and i32 %27, 248
  %29 = icmp eq i32 %28, 240
  br i1 %29, label %30, label %31

30:                                               ; preds = %24
  store i32 4, ptr %3, align 4
  br label %32

31:                                               ; preds = %24
  store i32 1, ptr %3, align 4
  br label %32

32:                                               ; preds = %31, %30
  br label %33

33:                                               ; preds = %32, %23
  br label %34

34:                                               ; preds = %33, %16
  br label %35

35:                                               ; preds = %34, %9
  %36 = load i32, ptr %3, align 4
  call void @llvm.lifetime.end.p0(i64 4, ptr %3) #7
  ret i32 %36
}