; Function Attrs: mustprogress nofree norecurse nosync nounwind willreturn memory(argmem: read) uwtable
define dso_local range(i32 1, 5) i32 @pg_utf_mblen_private(ptr noundef readonly captures(none) %0) #0 {
  %2 = load i8, ptr %0, align 1
  %3 = zext i8 %2 to i32
  %4 = icmp sgt i8 %2, -1
  br i1 %4, label %14, label %5

5:                                                ; preds = %1
  %6 = and i32 %3, 224
  %7 = icmp eq i32 %6, 192
  br i1 %7, label %14, label %8

8:                                                ; preds = %5
  %9 = and i32 %3, 240
  %10 = icmp eq i32 %9, 224
  br i1 %10, label %14, label %11

11:                                               ; preds = %8
  %12 = and i32 %3, 248
  %13 = icmp eq i32 %12, 240
  %. = select i1 %13, i32 4, i32 1
  br label %14

14:                                               ; preds = %11, %8, %5, %1
  %.0 = phi i32 [ 1, %1 ], [ 2, %5 ], [ 3, %8 ], [ %., %11 ]
  ret i32 %.0
}